target datalayout = "e-m:e-p270:32:32-p271:32:32-p272:64:64-i64:64-i128:128-f80:128-n8:16:32:64-S128"
target triple = "x86_64-pc-linux-gnu"

%struct._zend_array = type { %struct._zend_refcounted_h, %union.anon.0, i32, %union.anon.1, i32, i32, i32, i32, i64, ptr }
%struct._zend_refcounted_h = type { i32, %union.anon }
%union.anon = type { i32 }
%union.anon.0 = type { i32 }
%union.anon.1 = type { ptr }
%struct._zend_executor_globals = type { %struct._zval_struct, %struct._zval_struct, [32 x ptr], ptr, ptr, %struct._zend_array, %struct._zend_array, ptr, i32, i32, ptr, ptr, ptr, ptr, ptr, ptr, i64, ptr, ptr, i32, i32, i64, i32, i32, i32, i8, i8, %struct.zend_atomic_bool_s, %struct.zend_atomic_bool_s, ptr, i64, ptr, ptr, %struct._zend_array, %struct._zend_array, i32, i8, %struct._zval_struct, %struct._zval_struct, %struct._zend_stack, %struct._zend_stack, %struct._zend_stack, ptr, i32, i32, i64, ptr, ptr, ptr, %struct._zend_objects_store, ptr, ptr, ptr, [3 x %struct._zend_op], ptr, i8, i8, i64, i32, i32, ptr, [16 x %struct._HashTableIterator], ptr, %union._zend_function, %struct._zend_op, %struct._zend_array, i64, %struct.zend_get_gc_buffer, ptr, ptr, ptr, i64, i8, i32, ptr, ptr, i64, %struct._zend_call_stack, i64, i64, [6 x ptr] }
%struct.zend_atomic_bool_s = type { i8 }
%struct._zval_struct = type { %union._zend_value, %union.anon.3, %union.anon.6 }
%union._zend_value = type { i64 }
%union.anon.3 = type { i32 }
%union.anon.6 = type { i32 }
%struct._zend_stack = type { i32, i32, i32, ptr }
%struct._zend_objects_store = type { ptr, i32, i32, i32 }
%struct._HashTableIterator = type { ptr, i32, i32 }
%union._zend_function = type { %struct._zend_op_array }
%struct._zend_op_array = type { i8, [3 x i8], i32, ptr, ptr, ptr, i32, i32, ptr, ptr, ptr, ptr, i32, i32, i32, i32, ptr, ptr, ptr, ptr, ptr, i32, i32, ptr, ptr, ptr, i32, i32, i32, i32, ptr, ptr, [6 x ptr] }
%struct._zend_op = type { ptr, %union._znode_op, %union._znode_op, %union._znode_op, i32, i32, i8, i8, i8, i8 }
%union._znode_op = type { i32 }
%struct.zend_get_gc_buffer = type { ptr, ptr, ptr }
%struct._zend_call_stack = type { ptr, i64 }
%struct.anon = type { i8, i8, i8, i8 }

@executor_globals = external global %struct._zend_executor_globals, align 8

; Function Attrs: nounwind uwtable
define void @zend_hash_packed_del_val(ptr noundef %0, ptr noundef %1) #0 {
  %3 = alloca ptr, align 8
  %4 = alloca i32, align 4
  %5 = alloca ptr, align 8
  %6 = alloca ptr, align 8
  %7 = alloca ptr, align 8
  %8 = alloca ptr, align 8
  %9 = alloca i32, align 4
  %10 = alloca ptr, align 8
  %11 = alloca %struct._zval_struct, align 8
  %12 = alloca ptr, align 8
  %13 = alloca ptr, align 8
  %14 = alloca ptr, align 8
  %15 = alloca i32, align 4
  %16 = alloca ptr, align 8
  %17 = alloca ptr, align 8
  store ptr %0, ptr %16, align 8
  store ptr %1, ptr %17, align 8
  %18 = load ptr, ptr %16, align 8
  %19 = getelementptr inbounds %struct._zend_array, ptr %18, i32 0, i32 1
  %20 = load i32, ptr %19, align 8
  %21 = and i32 %20, 4
  %22 = icmp ne i32 %21, 0
  call void @llvm.assume(i1 %22)
  %23 = load ptr, ptr %16, align 8
  %24 = load ptr, ptr %17, align 8
  %25 = load ptr, ptr %16, align 8
  %26 = getelementptr inbounds %struct._zend_array, ptr %25, i32 0, i32 3
  %27 = load ptr, ptr %26, align 8
  %28 = ptrtoint ptr %24 to i64
  %29 = ptrtoint ptr %27 to i64
  %30 = sub i64 %28, %29
  %31 = sdiv exact i64 %30, 16
  %32 = trunc i64 %31 to i32
  %33 = load ptr, ptr %17, align 8
  store ptr %23, ptr %8, align 8
  store i32 %32, ptr %9, align 4
  store ptr %33, ptr %10, align 8
  %34 = load i32, ptr %9, align 4
  store i32 %34, ptr %9, align 4
  %35 = load ptr, ptr %8, align 8
  %36 = getelementptr inbounds %struct._zend_array, ptr %35, i32 0, i32 5
  %37 = load i32, ptr %36, align 4
  %38 = add i32 %37, -1
  store i32 %38, ptr %36, align 4
  %39 = load ptr, ptr %8, align 8
  %40 = getelementptr inbounds %struct._zend_array, ptr %39, i32 0, i32 4
  %41 = load i32, ptr %40, align 8
  %42 = sub i32 %41, 1
  %43 = load i32, ptr %9, align 4
  %44 = icmp eq i32 %42, %43
  br i1 %44, label %45, label %138

45:                                               ; preds = %2
  br label %46

46:                                               ; preds = %70, %45
  %47 = load ptr, ptr %8, align 8
  %48 = getelementptr inbounds %struct._zend_array, ptr %47, i32 0, i32 4
  %49 = load i32, ptr %48, align 8
  %50 = add i32 %49, -1
  store i32 %50, ptr %48, align 8
  %51 = load ptr, ptr %8, align 8
  %52 = getelementptr inbounds %struct._zend_array, ptr %51, i32 0, i32 4
  %53 = load i32, ptr %52, align 8
  %54 = icmp ugt i32 %53, 0
  br i1 %54, label %55, label %70

55:                                               ; preds = %46
  %56 = load ptr, ptr %8, align 8
  %57 = getelementptr inbounds %struct._zend_array, ptr %56, i32 0, i32 3
  %58 = load ptr, ptr %57, align 8
  %59 = load ptr, ptr %8, align 8
  %60 = getelementptr inbounds %struct._zend_array, ptr %59, i32 0, i32 4
  %61 = load i32, ptr %60, align 8
  %62 = sub i32 %61, 1
  %63 = zext i32 %62 to i64
  %64 = getelementptr inbounds %struct._zval_struct, ptr %58, i64 %63
  store ptr %64, ptr %7, align 8
  %65 = load ptr, ptr %7, align 8
  %66 = getelementptr inbounds %struct._zval_struct, ptr %65, i32 0, i32 1
  %67 = load i8, ptr %66, align 8
  %68 = zext i8 %67 to i32
  %69 = icmp eq i32 %68, 0
  br label %70

70:                                               ; preds = %55, %46
  %71 = phi i1 [ false, %46 ], [ %69, %55 ]
  br i1 %71, label %46, label %72

72:                                               ; preds = %70
  %73 = load ptr, ptr %8, align 8
  %74 = getelementptr inbounds %struct._zend_array, ptr %73, i32 0, i32 7
  %75 = load i32, ptr %74, align 4
  %76 = load ptr, ptr %8, align 8
  %77 = getelementptr inbounds %struct._zend_array, ptr %76, i32 0, i32 4
  %78 = load i32, ptr %77, align 8
  %79 = icmp ult i32 %75, %78
  br i1 %79, label %80, label %84

80:                                               ; preds = %72
  %81 = load ptr, ptr %8, align 8
  %82 = getelementptr inbounds %struct._zend_array, ptr %81, i32 0, i32 7
  %83 = load i32, ptr %82, align 4
  br label %88

84:                                               ; preds = %72
  %85 = load ptr, ptr %8, align 8
  %86 = getelementptr inbounds %struct._zend_array, ptr %85, i32 0, i32 4
  %87 = load i32, ptr %86, align 8
  br label %88

88:                                               ; preds = %84, %80
  %89 = phi i32 [ %83, %80 ], [ %87, %84 ]
  %90 = load ptr, ptr %8, align 8
  %91 = getelementptr inbounds %struct._zend_array, ptr %90, i32 0, i32 7
  store i32 %89, ptr %91, align 4
  %92 = load ptr, ptr %8, align 8
  %93 = load ptr, ptr %8, align 8
  %94 = getelementptr inbounds %struct._zend_array, ptr %93, i32 0, i32 4
  %95 = load i32, ptr %94, align 8
  store ptr %92, ptr %3, align 8
  store i32 %95, ptr %4, align 4
  %96 = load ptr, ptr %3, align 8
  %97 = getelementptr inbounds %struct._zend_array, ptr %96, i32 0, i32 1
  %98 = getelementptr inbounds %struct.anon, ptr %97, i32 0, i32 2
  %99 = load i8, ptr %98, align 2
  %100 = zext i8 %99 to i32
  %101 = icmp ne i32 %100, 0
  br i1 %101, label %102, label %137

102:                                              ; preds = %88
  %103 = load ptr, ptr getelementptr inbounds (%struct._zend_executor_globals, ptr @executor_globals, i32 0, i32 60), align 8
  store ptr %103, ptr %5, align 8
  %104 = load ptr, ptr %5, align 8
  %105 = load i32, ptr getelementptr inbounds (%struct._zend_executor_globals, ptr @executor_globals, i32 0, i32 59), align 4
  %106 = zext i32 %105 to i64
  %107 = getelementptr inbounds %struct._HashTableIterator, ptr %104, i64 %106
  store ptr %107, ptr %6, align 8
  br label %108

108:                                              ; preds = %133, %102
  %109 = load ptr, ptr %5, align 8
  %110 = load ptr, ptr %6, align 8
  %111 = icmp ne ptr %109, %110
  br i1 %111, label %112, label %136

112:                                              ; preds = %108
  %113 = load ptr, ptr %5, align 8
  %114 = load ptr, ptr %113, align 8
  %115 = load ptr, ptr %3, align 8
  %116 = icmp eq ptr %114, %115
  br i1 %116, label %117, label %133

117:                                              ; preds = %112
  %118 = load ptr, ptr %5, align 8
  %119 = getelementptr inbounds %struct._HashTableIterator, ptr %118, i32 0, i32 1
  %120 = load i32, ptr %119, align 8
  %121 = load i32, ptr %4, align 4
  %122 = icmp ult i32 %120, %121
  br i1 %122, label %123, label %127

123:                                              ; preds = %117
  %124 = load ptr, ptr %5, align 8
  %125 = getelementptr inbounds %struct._HashTableIterator, ptr %124, i32 0, i32 1
  %126 = load i32, ptr %125, align 8
  br label %129

127:                                              ; preds = %117
  %128 = load i32, ptr %4, align 4
  br label %129

129:                                              ; preds = %127, %123
  %130 = phi i32 [ %126, %123 ], [ %128, %127 ]
  %131 = load ptr, ptr %5, align 8
  %132 = getelementptr inbounds %struct._HashTableIterator, ptr %131, i32 0, i32 1
  store i32 %130, ptr %132, align 8
  br label %133

133:                                              ; preds = %129, %112
  %134 = load ptr, ptr %5, align 8
  %135 = getelementptr inbounds %struct._HashTableIterator, ptr %134, i32 1
  store ptr %135, ptr %5, align 8
  br label %108

136:                                              ; preds = %108
  br label %137

137:                                              ; preds = %136, %88
  br label %138

138:                                              ; preds = %137, %2
  %139 = load ptr, ptr %8, align 8
  %140 = getelementptr inbounds %struct._zend_array, ptr %139, i32 0, i32 9
  %141 = load ptr, ptr %140, align 8
  %142 = icmp ne ptr %141, null
  br i1 %142, label %143, label %160

143:                                              ; preds = %138
  store ptr %11, ptr %12, align 8
  %144 = load ptr, ptr %10, align 8
  store ptr %144, ptr %13, align 8
  %145 = load ptr, ptr %13, align 8
  %146 = load ptr, ptr %145, align 8
  store ptr %146, ptr %14, align 8
  %147 = load ptr, ptr %13, align 8
  %148 = getelementptr inbounds %struct._zval_struct, ptr %147, i32 0, i32 1
  %149 = load i32, ptr %148, align 8
  store i32 %149, ptr %15, align 4
  %150 = load ptr, ptr %14, align 8
  %151 = load ptr, ptr %12, align 8
  store ptr %150, ptr %151, align 8
  %152 = load i32, ptr %15, align 4
  %153 = load ptr, ptr %12, align 8
  %154 = getelementptr inbounds %struct._zval_struct, ptr %153, i32 0, i32 1
  store i32 %152, ptr %154, align 8
  %155 = load ptr, ptr %10, align 8
  %156 = getelementptr inbounds %struct._zval_struct, ptr %155, i32 0, i32 1
  store i32 0, ptr %156, align 8
  %157 = load ptr, ptr %8, align 8
  %158 = getelementptr inbounds %struct._zend_array, ptr %157, i32 0, i32 9
  %159 = load ptr, ptr %158, align 8
  call void %159(ptr noundef %11) #15
  br label %163

160:                                              ; preds = %138
  %161 = load ptr, ptr %10, align 8
  %162 = getelementptr inbounds %struct._zval_struct, ptr %161, i32 0, i32 1
  store i32 0, ptr %162, align 8
  br label %163

163:                                              ; preds = %160, %143
  ret void
}