; Function Attrs: nounwind uwtable
define void @zend_hash_packed_del_val(ptr noundef %0, ptr noundef %1) local_unnamed_addr #0 {
  %3 = alloca %struct._zval_struct, align 8
  %4 = getelementptr inbounds i8, ptr %0, i64 8
  %5 = load i32, ptr %4, align 8
  %6 = and i32 %5, 4
  %7 = icmp ne i32 %6, 0
  tail call void @llvm.assume(i1 %7)
  %8 = getelementptr inbounds i8, ptr %0, i64 16
  %9 = load ptr, ptr %8, align 8
  %10 = ptrtoint ptr %1 to i64
  %11 = ptrtoint ptr %9 to i64
  %12 = sub i64 %10, %11
  %13 = lshr exact i64 %12, 4
  %14 = trunc i64 %13 to i32
  %15 = getelementptr inbounds i8, ptr %0, i64 28
  %16 = load i32, ptr %15, align 4
  %17 = add i32 %16, -1
  store i32 %17, ptr %15, align 4
  %18 = getelementptr inbounds i8, ptr %0, i64 24
  %19 = load i32, ptr %18, align 8
  %20 = add i32 %19, -1
  %21 = icmp eq i32 %20, %14
  br i1 %21, label %.preheader, label %.loopexit

.preheader:                                       ; preds = %2, %24
  %22 = phi i32 [ %23, %24 ], [ %19, %2 ]
  %23 = add i32 %22, -1
  store i32 %23, ptr %18, align 8
  %.not = icmp eq i32 %23, 0
  br i1 %.not, label %.critedge, label %24

24:                                               ; preds = %.preheader
  %25 = add i32 %22, -2
  %26 = zext i32 %25 to i64
  %27 = getelementptr inbounds %struct._zval_struct, ptr %9, i64 %26, i32 1
  %28 = load i8, ptr %27, align 8
  %29 = icmp eq i8 %28, 0
  br i1 %29, label %.preheader, label %.critedge

.critedge:                                        ; preds = %.preheader, %24
  %30 = getelementptr inbounds i8, ptr %0, i64 36
  %31 = load i32, ptr %30, align 4
  %. = tail call i32 @llvm.umin.i32(i32 %31, i32 %23)
  store i32 %., ptr %30, align 4
  %32 = and i32 %5, 16711680
  %.not48 = icmp eq i32 %32, 0
  br i1 %.not48, label %.loopexit, label %33

33:                                               ; preds = %.critedge
  %34 = load ptr, ptr getelementptr inbounds (%struct._zend_executor_globals, ptr @executor_globals, i64 0, i32 60), align 8
  %35 = load i32, ptr getelementptr inbounds (%struct._zend_executor_globals, ptr @executor_globals, i64 0, i32 59), align 4
  %36 = zext i32 %35 to i64
  %37 = getelementptr inbounds %struct._HashTableIterator, ptr %34, i64 %36
  %.not4952 = icmp eq i32 %35, 0
  br i1 %.not4952, label %.loopexit, label %.lr.ph

.lr.ph:                                           ; preds = %33, %43
  %.053 = phi ptr [ %44, %43 ], [ %34, %33 ]
  %38 = load ptr, ptr %.053, align 8
  %39 = icmp eq ptr %38, %0
  br i1 %39, label %40, label %43

40:                                               ; preds = %.lr.ph
  %41 = getelementptr inbounds i8, ptr %.053, i64 8
  %42 = load i32, ptr %41, align 8
  %.51 = tail call i32 @llvm.umin.i32(i32 %42, i32 %23)
  store i32 %.51, ptr %41, align 8
  br label %43

43:                                               ; preds = %40, %.lr.ph
  %44 = getelementptr inbounds i8, ptr %.053, i64 16
  %.not49 = icmp eq ptr %44, %37
  br i1 %.not49, label %.loopexit, label %.lr.ph

.loopexit:                                        ; preds = %43, %33, %.critedge, %2
  %45 = getelementptr inbounds i8, ptr %0, i64 48
  %46 = load ptr, ptr %45, align 8
  %.not50 = icmp eq ptr %46, null
  br i1 %.not50, label %53, label %47

47:                                               ; preds = %.loopexit
  %48 = load ptr, ptr %1, align 8
  %49 = getelementptr inbounds i8, ptr %1, i64 8
  %50 = load i32, ptr %49, align 8
  store ptr %48, ptr %3, align 8
  %51 = getelementptr inbounds i8, ptr %3, i64 8
  store i32 %50, ptr %51, align 8
  store i32 0, ptr %49, align 8
  %52 = load ptr, ptr %45, align 8
  call void %52(ptr noundef nonnull %3) #27
  br label %55

53:                                               ; preds = %.loopexit
  %54 = getelementptr inbounds i8, ptr %1, i64 8
  store i32 0, ptr %54, align 8
  br label %55

55:                                               ; preds = %53, %47
  ret void
}